; Function Attrs: nounwind uwtable
define noundef ptr @Ga2_ManDeriveCex(ptr noundef readonly captures(none) %0, ptr noundef readonly captures(none) %1) local_unnamed_addr #4 {
  %3 = load ptr, ptr %0, align 8
  %4 = getelementptr i8, ptr %3, i64 16
  %.val32 = load i32, ptr %4, align 8
  %5 = getelementptr i8, ptr %3, i64 64
  %.val34 = load ptr, ptr %5, align 8
  %6 = getelementptr i8, ptr %.val34, i64 4
  %.val34.val = load i32, ptr %6, align 4
  %7 = sub nsw i32 %.val34.val, %.val32
  %8 = getelementptr inbounds nuw i8, ptr %0, i64 8
  %9 = load ptr, ptr %8, align 8
  %10 = getelementptr inbounds nuw i8, ptr %9, i64 120
  %11 = load i32, ptr %10, align 8
  %12 = add nsw i32 %11, 1
  %13 = tail call ptr @Abc_CexAlloc(i32 noundef %.val32, i32 noundef %7, i32 noundef %12) #28
  store i32 0, ptr %13, align 4
  %14 = load ptr, ptr %8, align 8
  %15 = getelementptr inbounds nuw i8, ptr %14, i64 120
  %16 = load i32, ptr %15, align 8
  %17 = getelementptr inbounds nuw i8, ptr %13, i64 4
  store i32 %16, ptr %17, align 4
  %18 = getelementptr i8, ptr %1, i64 4
  %.val44 = load i32, ptr %18, align 4
  %19 = icmp sgt i32 %.val44, 0
  br i1 %19, label %.lr.ph46, label %.critedge

.lr.ph46:                                         ; preds = %2
  %20 = getelementptr i8, ptr %1, i64 8
  %21 = getelementptr i8, ptr %0, i64 88
  %22 = getelementptr i8, ptr %0, i64 24
  %23 = getelementptr inbounds nuw i8, ptr %0, i64 96
  %24 = getelementptr inbounds nuw i8, ptr %13, i64 20
  %25 = getelementptr inbounds nuw i8, ptr %13, i64 8
  %26 = getelementptr inbounds nuw i8, ptr %13, i64 12
  br label %27

27:                                               ; preds = %.lr.ph46, %Gia_ObjIsPi.exit.thread
  %.val52 = phi i32 [ %.val44, %.lr.ph46 ], [ %.val, %Gia_ObjIsPi.exit.thread ]
  %28 = phi i32 [ %16, %.lr.ph46 ], [ %93, %Gia_ObjIsPi.exit.thread ]
  %29 = phi i32 [ %16, %.lr.ph46 ], [ %94, %Gia_ObjIsPi.exit.thread ]
  %indvars.iv49 = phi i64 [ 0, %.lr.ph46 ], [ %indvars.iv.next50, %Gia_ObjIsPi.exit.thread ]
  %30 = load ptr, ptr %0, align 8
  %.val30 = load ptr, ptr %20, align 8
  %31 = getelementptr inbounds nuw i32, ptr %.val30, i64 %indvars.iv49
  %32 = load i32, ptr %31, align 4
  %33 = getelementptr i8, ptr %30, i64 32
  %.val31 = load ptr, ptr %33, align 8
  %34 = sext i32 %32 to i64
  %35 = getelementptr inbounds %struct.Gia_Obj_t_, ptr %.val31, i64 %34
  %.not = icmp eq ptr %.val31, null
  br i1 %.not, label %.critedge, label %36

36:                                               ; preds = %27
  %.val36 = load i64, ptr %35, align 4
  %37 = and i64 %.val36, 2684354559
  %narrow.i.not.i = icmp eq i64 %37, 2684354559
  br i1 %narrow.i.not.i, label %Gia_ObjIsPi.exit, label %Gia_ObjIsPi.exit.thread

Gia_ObjIsPi.exit:                                 ; preds = %36
  %38 = lshr i64 %.val36, 32
  %39 = trunc nuw i64 %38 to i32
  %40 = and i32 %39, 536870911
  %41 = getelementptr i8, ptr %30, i64 16
  %.val.i = load i32, ptr %41, align 8
  %42 = getelementptr i8, ptr %30, i64 64
  %.val3.i = load ptr, ptr %42, align 8
  %43 = getelementptr i8, ptr %.val3.i, i64 4
  %.val3.val.i = load i32, ptr %43, align 4
  %44 = sub nsw i32 %.val3.val.i, %.val.i
  %.not41 = icmp sge i32 %40, %44
  %.not2842 = icmp slt i32 %29, 0
  %or.cond = select i1 %.not41, i1 true, i1 %.not2842
  br i1 %or.cond, label %Gia_ObjIsPi.exit.thread, label %.lr.ph

.lr.ph:                                           ; preds = %Gia_ObjIsPi.exit
  %45 = ptrtoint ptr %35 to i64
  br label %46

46:                                               ; preds = %.lr.ph, %Ga2_ObjSatValue.exit.thread
  %47 = phi i32 [ %28, %.lr.ph ], [ %91, %Ga2_ObjSatValue.exit.thread ]
  %indvars.iv = phi i64 [ 0, %.lr.ph ], [ %indvars.iv.next, %Ga2_ObjSatValue.exit.thread ]
  %.val3.i.i = load ptr, ptr %21, align 8
  %48 = getelementptr i8, ptr %.val3.i.i, i64 8
  %.val3.val.i.i = load ptr, ptr %48, align 8
  %49 = getelementptr inbounds nuw ptr, ptr %.val3.val.i.i, i64 %indvars.iv
  %50 = load ptr, ptr %49, align 8
  %.val4.i.i = load ptr, ptr %0, align 8
  %.val5.i.i = load ptr, ptr %22, align 8
  %51 = getelementptr i8, ptr %.val4.i.i, i64 32
  %.val4.val.i.i = load ptr, ptr %51, align 8
  %52 = getelementptr i8, ptr %.val5.i.i, i64 8
  %.val5.val.i.i = load ptr, ptr %52, align 8
  %53 = ptrtoint ptr %.val4.val.i.i to i64
  %54 = sub i64 %45, %53
  %55 = sdiv exact i64 %54, 12
  %sext.i.i.i = shl i64 %55, 32
  %56 = ashr exact i64 %sext.i.i.i, 30
  %57 = getelementptr inbounds i8, ptr %.val5.val.i.i, i64 %56
  %58 = load i32, ptr %57, align 4
  %59 = getelementptr i8, ptr %50, i64 8
  %.val.i.i = load ptr, ptr %59, align 8
  %60 = sext i32 %58 to i64
  %61 = getelementptr inbounds i32, ptr %.val.i.i, i64 %60
  %62 = load i32, ptr %61, align 4
  %63 = icmp eq i32 %62, -1
  br i1 %63, label %Ga2_ObjSatValue.exit.thread, label %64

64:                                               ; preds = %46
  %65 = ashr i32 %62, 1
  %66 = load ptr, ptr %23, align 8
  %67 = load i32, ptr %66, align 8
  %.not.i = icmp slt i32 %65, %67
  br i1 %.not.i, label %Ga2_ObjSatValue.exit, label %Ga2_ObjSatValue.exit.thread

Ga2_ObjSatValue.exit:                             ; preds = %64
  %68 = getelementptr i8, ptr %66, i64 288
  %.val.i37 = load ptr, ptr %68, align 8
  %69 = sext i32 %65 to i64
  %70 = getelementptr inbounds i32, ptr %.val.i37, i64 %69
  %71 = load i32, ptr %70, align 4
  %72 = trunc i32 %62 to i1
  %73 = icmp ne i32 %71, 1
  %.not29 = xor i1 %73, %72
  br i1 %.not29, label %Ga2_ObjSatValue.exit.thread, label %74

74:                                               ; preds = %Ga2_ObjSatValue.exit
  %75 = load i32, ptr %25, align 4
  %76 = load i32, ptr %26, align 4
  %77 = trunc nuw nsw i64 %indvars.iv to i32
  %78 = mul nsw i32 %76, %77
  %79 = add nsw i32 %78, %75
  %.val35 = load i64, ptr %35, align 4
  %80 = lshr i64 %.val35, 32
  %81 = trunc nuw i64 %80 to i32
  %82 = and i32 %81, 536870911
  %83 = add nsw i32 %79, %82
  %84 = and i32 %83, 31
  %85 = shl nuw i32 1, %84
  %86 = ashr i32 %83, 5
  %87 = sext i32 %86 to i64
  %88 = getelementptr inbounds i32, ptr %24, i64 %87
  %89 = load i32, ptr %88, align 4
  %90 = or i32 %85, %89
  store i32 %90, ptr %88, align 4
  %.pre = load i32, ptr %17, align 4
  br label %Ga2_ObjSatValue.exit.thread

Ga2_ObjSatValue.exit.thread:                      ; preds = %64, %46, %Ga2_ObjSatValue.exit, %74
  %91 = phi i32 [ %47, %64 ], [ %47, %46 ], [ %47, %Ga2_ObjSatValue.exit ], [ %.pre, %74 ]
  %indvars.iv.next = add nuw nsw i64 %indvars.iv, 1
  %92 = sext i32 %91 to i64
  %.not28.not = icmp slt i64 %indvars.iv, %92
  br i1 %.not28.not, label %46, label %Gia_ObjIsPi.exit.thread.loopexit, !llvm.loop !56

Gia_ObjIsPi.exit.thread.loopexit:                 ; preds = %Ga2_ObjSatValue.exit.thread
  %.val.pre = load i32, ptr %18, align 4
  br label %Gia_ObjIsPi.exit.thread

Gia_ObjIsPi.exit.thread:                          ; preds = %Gia_ObjIsPi.exit.thread.loopexit, %36, %Gia_ObjIsPi.exit
  %.val = phi i32 [ %.val.pre, %Gia_ObjIsPi.exit.thread.loopexit ], [ %.val52, %36 ], [ %.val52, %Gia_ObjIsPi.exit ]
  %93 = phi i32 [ %91, %Gia_ObjIsPi.exit.thread.loopexit ], [ %28, %36 ], [ %28, %Gia_ObjIsPi.exit ]
  %94 = phi i32 [ %91, %Gia_ObjIsPi.exit.thread.loopexit ], [ %29, %36 ], [ %29, %Gia_ObjIsPi.exit ]
  %indvars.iv.next50 = add nuw nsw i64 %indvars.iv49, 1
  %95 = sext i32 %.val to i64
  %96 = icmp slt i64 %indvars.iv.next50, %95
  br i1 %96, label %27, label %.critedge, !llvm.loop !57

.critedge:                                        ; preds = %27, %Gia_ObjIsPi.exit.thread, %2
  ret ptr %13
}